target datalayout = "e-m:e-p270:32:32-p271:32:32-p272:64:64-i64:64-i128:128-f80:128-n8:16:32:64-S128"
target triple = "x86_64-pc-linux-gnu"

%"class.cvc5::internal::theory::arith::linear::DioSolver" = type { %"class.cvc5::internal::EnvObj", %"class.std::vector", %"class.cvc5::context::CDO", %"class.cvc5::context::CDList", %"class.cvc5::context::CDO", %"class.std::unordered_map", %"class.cvc5::context::CDList.10", %"class.cvc5::context::CDList.17", %"class.std::deque", %"class.cvc5::context::CDList.27", %"class.cvc5::context::CDO", %"class.cvc5::context::CDMaybe", %"class.cvc5::context::CDO.32", %"class.cvc5::context::CDO.33", %"class.cvc5::context::CDO", %"class.cvc5::context::CDO", %"class.cvc5::context::CDQueue", %"class.cvc5::internal::theory::arith::linear::DioSolver::Statistics" }
%"class.cvc5::internal::EnvObj" = type { ptr, ptr }
%"class.std::vector" = type { %"struct.std::_Vector_base" }
%"struct.std::_Vector_base" = type { %"struct.std::_Vector_base<cvc5::internal::theory::arith::linear::Variable, std::allocator<cvc5::internal::theory::arith::linear::Variable>>::_Vector_impl" }
%"struct.std::_Vector_base<cvc5::internal::theory::arith::linear::Variable, std::allocator<cvc5::internal::theory::arith::linear::Variable>>::_Vector_impl" = type { %"struct.std::_Vector_base<cvc5::internal::theory::arith::linear::Variable, std::allocator<cvc5::internal::theory::arith::linear::Variable>>::_Vector_impl_data" }
%"struct.std::_Vector_base<cvc5::internal::theory::arith::linear::Variable, std::allocator<cvc5::internal::theory::arith::linear::Variable>>::_Vector_impl_data" = type { ptr, ptr, ptr }
%"class.cvc5::context::CDList" = type <{ %"class.cvc5::context::ContextObj", %"class.std::vector.0", i64, i8, [7 x i8] }>
%"class.cvc5::context::ContextObj" = type { ptr, ptr, ptr, ptr, ptr }
%"class.std::vector.0" = type { %"struct.std::_Vector_base.1" }
%"struct.std::_Vector_base.1" = type { %"struct.std::_Vector_base<cvc5::internal::theory::arith::linear::DioSolver::InputConstraint, std::allocator<cvc5::internal::theory::arith::linear::DioSolver::InputConstraint>>::_Vector_impl" }
%"struct.std::_Vector_base<cvc5::internal::theory::arith::linear::DioSolver::InputConstraint, std::allocator<cvc5::internal::theory::arith::linear::DioSolver::InputConstraint>>::_Vector_impl" = type { %"struct.std::_Vector_base<cvc5::internal::theory::arith::linear::DioSolver::InputConstraint, std::allocator<cvc5::internal::theory::arith::linear::DioSolver::InputConstraint>>::_Vector_impl_data" }
%"struct.std::_Vector_base<cvc5::internal::theory::arith::linear::DioSolver::InputConstraint, std::allocator<cvc5::internal::theory::arith::linear::DioSolver::InputConstraint>>::_Vector_impl_data" = type { ptr, ptr, ptr }
%"class.std::unordered_map" = type { %"class.std::_Hashtable" }
%"class.std::_Hashtable" = type { ptr, i64, %"struct.std::__detail::_Hash_node_base", i64, %"struct.std::__detail::_Prime_rehash_policy", ptr }
%"struct.std::__detail::_Hash_node_base" = type { ptr }
%"struct.std::__detail::_Prime_rehash_policy" = type { float, i64 }
%"class.cvc5::context::CDList.10" = type <{ %"class.cvc5::context::ContextObj", %"class.std::vector.11", i64, i8, [7 x i8] }>
%"class.std::vector.11" = type { %"struct.std::_Vector_base.12" }
%"struct.std::_Vector_base.12" = type { %"struct.std::_Vector_base<cvc5::internal::theory::arith::linear::DioSolver::Constraint, std::allocator<cvc5::internal::theory::arith::linear::DioSolver::Constraint>>::_Vector_impl" }
%"struct.std::_Vector_base<cvc5::internal::theory::arith::linear::DioSolver::Constraint, std::allocator<cvc5::internal::theory::arith::linear::DioSolver::Constraint>>::_Vector_impl" = type { %"struct.std::_Vector_base<cvc5::internal::theory::arith::linear::DioSolver::Constraint, std::allocator<cvc5::internal::theory::arith::linear::DioSolver::Constraint>>::_Vector_impl_data" }
%"struct.std::_Vector_base<cvc5::internal::theory::arith::linear::DioSolver::Constraint, std::allocator<cvc5::internal::theory::arith::linear::DioSolver::Constraint>>::_Vector_impl_data" = type { ptr, ptr, ptr }
%"class.cvc5::context::CDList.17" = type <{ %"class.cvc5::context::ContextObj", %"class.std::vector.18", i64, i8, [7 x i8] }>
%"class.std::vector.18" = type { %"struct.std::_Vector_base.19" }
%"struct.std::_Vector_base.19" = type { %"struct.std::_Vector_base<cvc5::internal::theory::arith::linear::DioSolver::Substitution, std::allocator<cvc5::internal::theory::arith::linear::DioSolver::Substitution>>::_Vector_impl" }
%"struct.std::_Vector_base<cvc5::internal::theory::arith::linear::DioSolver::Substitution, std::allocator<cvc5::internal::theory::arith::linear::DioSolver::Substitution>>::_Vector_impl" = type { %"struct.std::_Vector_base<cvc5::internal::theory::arith::linear::DioSolver::Substitution, std::allocator<cvc5::internal::theory::arith::linear::DioSolver::Substitution>>::_Vector_impl_data" }
%"struct.std::_Vector_base<cvc5::internal::theory::arith::linear::DioSolver::Substitution, std::allocator<cvc5::internal::theory::arith::linear::DioSolver::Substitution>>::_Vector_impl_data" = type { ptr, ptr, ptr }
%"class.std::deque" = type { %"class.std::_Deque_base" }
%"class.std::_Deque_base" = type { %"struct.std::_Deque_base<unsigned long, std::allocator<unsigned long>>::_Deque_impl" }
%"struct.std::_Deque_base<unsigned long, std::allocator<unsigned long>>::_Deque_impl" = type { %"struct.std::_Deque_base<unsigned long, std::allocator<unsigned long>>::_Deque_impl_data" }
%"struct.std::_Deque_base<unsigned long, std::allocator<unsigned long>>::_Deque_impl_data" = type { ptr, i64, %"struct.std::_Deque_iterator", %"struct.std::_Deque_iterator" }
%"struct.std::_Deque_iterator" = type { ptr, ptr, ptr, ptr }
%"class.cvc5::context::CDList.27" = type <{ %"class.cvc5::context::ContextObj", %"class.std::vector.28", i64, i8, [7 x i8] }>
%"class.std::vector.28" = type { %"struct.std::_Vector_base.29" }
%"struct.std::_Vector_base.29" = type { %"struct.std::_Vector_base<unsigned long, std::allocator<unsigned long>>::_Vector_impl" }
%"struct.std::_Vector_base<unsigned long, std::allocator<unsigned long>>::_Vector_impl" = type { %"struct.std::_Vector_base<unsigned long, std::allocator<unsigned long>>::_Vector_impl_data" }
%"struct.std::_Vector_base<unsigned long, std::allocator<unsigned long>>::_Vector_impl_data" = type { ptr, ptr, ptr }
%"class.cvc5::context::CDMaybe" = type { %"class.cvc5::context::CDO.31" }
%"class.cvc5::context::CDO.31" = type { %"class.cvc5::context::ContextObj", %"struct.std::pair" }
%"struct.std::pair" = type { i8, i64 }
%"class.cvc5::context::CDO.32" = type <{ %"class.cvc5::context::ContextObj", i32, [4 x i8] }>
%"class.cvc5::context::CDO.33" = type <{ %"class.cvc5::context::ContextObj", i8, [7 x i8] }>
%"class.cvc5::context::CDO" = type { %"class.cvc5::context::ContextObj", i64 }
%"class.cvc5::context::CDQueue" = type { %"class.cvc5::context::CDList.base.30", i64, i64 }
%"class.cvc5::context::CDList.base.30" = type <{ %"class.cvc5::context::ContextObj", %"class.std::vector.28", i64, i8, i8 }>
%"class.cvc5::internal::theory::arith::linear::DioSolver::Statistics" = type { %"class.cvc5::internal::IntStat", %"class.cvc5::internal::IntStat", %"class.cvc5::internal::IntStat", %"class.cvc5::internal::IntStat", %"class.cvc5::internal::TimerStat", %"class.cvc5::internal::TimerStat" }
%"class.cvc5::internal::IntStat" = type { %"class.cvc5::internal::ValueStat" }
%"class.cvc5::internal::ValueStat" = type { ptr }
%"class.cvc5::internal::TimerStat" = type { ptr }
%"class.cvc5::internal::Options" = type { %"class.std::unique_ptr.81", %"class.std::unique_ptr.89", %"class.std::unique_ptr.97", %"class.std::unique_ptr.105", %"class.std::unique_ptr.113", %"class.std::unique_ptr.121", %"class.std::unique_ptr.129", %"class.std::unique_ptr.137", %"class.std::unique_ptr.145", %"class.std::unique_ptr.153", %"class.std::unique_ptr.161", %"class.std::unique_ptr.169", %"class.std::unique_ptr.177", %"class.std::unique_ptr.185", %"class.std::unique_ptr.193", %"class.std::unique_ptr.201", %"class.std::unique_ptr.209", %"class.std::unique_ptr.217", %"class.std::unique_ptr.225", %"class.std::unique_ptr.233", %"class.std::unique_ptr.241", %"class.std::unique_ptr.249", %"class.std::unique_ptr.257", %"class.std::unique_ptr.265", %"class.std::unique_ptr.273", ptr, ptr, ptr, ptr, ptr, ptr, ptr, ptr, ptr, ptr, ptr, ptr, ptr, ptr, ptr, ptr, ptr, ptr, ptr, ptr, ptr, ptr, ptr, ptr, ptr, %"class.std::unique_ptr.281" }
%"class.std::unique_ptr.81" = type { %"struct.std::__uniq_ptr_data.82" }
%"struct.std::__uniq_ptr_data.82" = type { %"class.std::__uniq_ptr_impl.83" }
%"class.std::__uniq_ptr_impl.83" = type { %"class.std::tuple.84" }
%"class.std::tuple.84" = type { %"struct.std::_Tuple_impl.85" }
%"struct.std::_Tuple_impl.85" = type { %"struct.std::_Head_base.88" }
%"struct.std::_Head_base.88" = type { ptr }
%"class.std::unique_ptr.89" = type { %"struct.std::__uniq_ptr_data.90" }
%"struct.std::__uniq_ptr_data.90" = type { %"class.std::__uniq_ptr_impl.91" }
%"class.std::__uniq_ptr_impl.91" = type { %"class.std::tuple.92" }
%"class.std::tuple.92" = type { %"struct.std::_Tuple_impl.93" }
%"struct.std::_Tuple_impl.93" = type { %"struct.std::_Head_base.96" }
%"struct.std::_Head_base.96" = type { ptr }
%"class.std::unique_ptr.97" = type { %"struct.std::__uniq_ptr_data.98" }
%"struct.std::__uniq_ptr_data.98" = type { %"class.std::__uniq_ptr_impl.99" }
%"class.std::__uniq_ptr_impl.99" = type { %"class.std::tuple.100" }
%"class.std::tuple.100" = type { %"struct.std::_Tuple_impl.101" }
%"struct.std::_Tuple_impl.101" = type { %"struct.std::_Head_base.104" }
%"struct.std::_Head_base.104" = type { ptr }
%"class.std::unique_ptr.105" = type { %"struct.std::__uniq_ptr_data.106" }
%"struct.std::__uniq_ptr_data.106" = type { %"class.std::__uniq_ptr_impl.107" }
%"class.std::__uniq_ptr_impl.107" = type { %"class.std::tuple.108" }
%"class.std::tuple.108" = type { %"struct.std::_Tuple_impl.109" }
%"struct.std::_Tuple_impl.109" = type { %"struct.std::_Head_base.112" }
%"struct.std::_Head_base.112" = type { ptr }
%"class.std::unique_ptr.113" = type { %"struct.std::__uniq_ptr_data.114" }
%"struct.std::__uniq_ptr_data.114" = type { %"class.std::__uniq_ptr_impl.115" }
%"class.std::__uniq_ptr_impl.115" = type { %"class.std::tuple.116" }
%"class.std::tuple.116" = type { %"struct.std::_Tuple_impl.117" }
%"struct.std::_Tuple_impl.117" = type { %"struct.std::_Head_base.120" }
%"struct.std::_Head_base.120" = type { ptr }
%"class.std::unique_ptr.121" = type { %"struct.std::__uniq_ptr_data.122" }
%"struct.std::__uniq_ptr_data.122" = type { %"class.std::__uniq_ptr_impl.123" }
%"class.std::__uniq_ptr_impl.123" = type { %"class.std::tuple.124" }
%"class.std::tuple.124" = type { %"struct.std::_Tuple_impl.125" }
%"struct.std::_Tuple_impl.125" = type { %"struct.std::_Head_base.128" }
%"struct.std::_Head_base.128" = type { ptr }
%"class.std::unique_ptr.129" = type { %"struct.std::__uniq_ptr_data.130" }
%"struct.std::__uniq_ptr_data.130" = type { %"class.std::__uniq_ptr_impl.131" }
%"class.std::__uniq_ptr_impl.131" = type { %"class.std::tuple.132" }
%"class.std::tuple.132" = type { %"struct.std::_Tuple_impl.133" }
%"struct.std::_Tuple_impl.133" = type { %"struct.std::_Head_base.136" }
%"struct.std::_Head_base.136" = type { ptr }
%"class.std::unique_ptr.137" = type { %"struct.std::__uniq_ptr_data.138" }
%"struct.std::__uniq_ptr_data.138" = type { %"class.std::__uniq_ptr_impl.139" }
%"class.std::__uniq_ptr_impl.139" = type { %"class.std::tuple.140" }
%"class.std::tuple.140" = type { %"struct.std::_Tuple_impl.141" }
%"struct.std::_Tuple_impl.141" = type { %"struct.std::_Head_base.144" }
%"struct.std::_Head_base.144" = type { ptr }
%"class.std::unique_ptr.145" = type { %"struct.std::__uniq_ptr_data.146" }
%"struct.std::__uniq_ptr_data.146" = type { %"class.std::__uniq_ptr_impl.147" }
%"class.std::__uniq_ptr_impl.147" = type { %"class.std::tuple.148" }
%"class.std::tuple.148" = type { %"struct.std::_Tuple_impl.149" }
%"struct.std::_Tuple_impl.149" = type { %"struct.std::_Head_base.152" }
%"struct.std::_Head_base.152" = type { ptr }
%"class.std::unique_ptr.153" = type { %"struct.std::__uniq_ptr_data.154" }
%"struct.std::__uniq_ptr_data.154" = type { %"class.std::__uniq_ptr_impl.155" }
%"class.std::__uniq_ptr_impl.155" = type { %"class.std::tuple.156" }
%"class.std::tuple.156" = type { %"struct.std::_Tuple_impl.157" }
%"struct.std::_Tuple_impl.157" = type { %"struct.std::_Head_base.160" }
%"struct.std::_Head_base.160" = type { ptr }
%"class.std::unique_ptr.161" = type { %"struct.std::__uniq_ptr_data.162" }
%"struct.std::__uniq_ptr_data.162" = type { %"class.std::__uniq_ptr_impl.163" }
%"class.std::__uniq_ptr_impl.163" = type { %"class.std::tuple.164" }
%"class.std::tuple.164" = type { %"struct.std::_Tuple_impl.165" }
%"struct.std::_Tuple_impl.165" = type { %"struct.std::_Head_base.168" }
%"struct.std::_Head_base.168" = type { ptr }
%"class.std::unique_ptr.169" = type { %"struct.std::__uniq_ptr_data.170" }
%"struct.std::__uniq_ptr_data.170" = type { %"class.std::__uniq_ptr_impl.171" }
%"class.std::__uniq_ptr_impl.171" = type { %"class.std::tuple.172" }
%"class.std::tuple.172" = type { %"struct.std::_Tuple_impl.173" }
%"struct.std::_Tuple_impl.173" = type { %"struct.std::_Head_base.176" }
%"struct.std::_Head_base.176" = type { ptr }
%"class.std::unique_ptr.177" = type { %"struct.std::__uniq_ptr_data.178" }
%"struct.std::__uniq_ptr_data.178" = type { %"class.std::__uniq_ptr_impl.179" }
%"class.std::__uniq_ptr_impl.179" = type { %"class.std::tuple.180" }
%"class.std::tuple.180" = type { %"struct.std::_Tuple_impl.181" }
%"struct.std::_Tuple_impl.181" = type { %"struct.std::_Head_base.184" }
%"struct.std::_Head_base.184" = type { ptr }
%"class.std::unique_ptr.185" = type { %"struct.std::__uniq_ptr_data.186" }
%"struct.std::__uniq_ptr_data.186" = type { %"class.std::__uniq_ptr_impl.187" }
%"class.std::__uniq_ptr_impl.187" = type { %"class.std::tuple.188" }
%"class.std::tuple.188" = type { %"struct.std::_Tuple_impl.189" }
%"struct.std::_Tuple_impl.189" = type { %"struct.std::_Head_base.192" }
%"struct.std::_Head_base.192" = type { ptr }
%"class.std::unique_ptr.193" = type { %"struct.std::__uniq_ptr_data.194" }
%"struct.std::__uniq_ptr_data.194" = type { %"class.std::__uniq_ptr_impl.195" }
%"class.std::__uniq_ptr_impl.195" = type { %"class.std::tuple.196" }
%"class.std::tuple.196" = type { %"struct.std::_Tuple_impl.197" }
%"struct.std::_Tuple_impl.197" = type { %"struct.std::_Head_base.200" }
%"struct.std::_Head_base.200" = type { ptr }
%"class.std::unique_ptr.201" = type { %"struct.std::__uniq_ptr_data.202" }
%"struct.std::__uniq_ptr_data.202" = type { %"class.std::__uniq_ptr_impl.203" }
%"class.std::__uniq_ptr_impl.203" = type { %"class.std::tuple.204" }
%"class.std::tuple.204" = type { %"struct.std::_Tuple_impl.205" }
%"struct.std::_Tuple_impl.205" = type { %"struct.std::_Head_base.208" }
%"struct.std::_Head_base.208" = type { ptr }
%"class.std::unique_ptr.209" = type { %"struct.std::__uniq_ptr_data.210" }
%"struct.std::__uniq_ptr_data.210" = type { %"class.std::__uniq_ptr_impl.211" }
%"class.std::__uniq_ptr_impl.211" = type { %"class.std::tuple.212" }
%"class.std::tuple.212" = type { %"struct.std::_Tuple_impl.213" }
%"struct.std::_Tuple_impl.213" = type { %"struct.std::_Head_base.216" }
%"struct.std::_Head_base.216" = type { ptr }
%"class.std::unique_ptr.217" = type { %"struct.std::__uniq_ptr_data.218" }
%"struct.std::__uniq_ptr_data.218" = type { %"class.std::__uniq_ptr_impl.219" }
%"class.std::__uniq_ptr_impl.219" = type { %"class.std::tuple.220" }
%"class.std::tuple.220" = type { %"struct.std::_Tuple_impl.221" }
%"struct.std::_Tuple_impl.221" = type { %"struct.std::_Head_base.224" }
%"struct.std::_Head_base.224" = type { ptr }
%"class.std::unique_ptr.225" = type { %"struct.std::__uniq_ptr_data.226" }
%"struct.std::__uniq_ptr_data.226" = type { %"class.std::__uniq_ptr_impl.227" }
%"class.std::__uniq_ptr_impl.227" = type { %"class.std::tuple.228" }
%"class.std::tuple.228" = type { %"struct.std::_Tuple_impl.229" }
%"struct.std::_Tuple_impl.229" = type { %"struct.std::_Head_base.232" }
%"struct.std::_Head_base.232" = type { ptr }
%"class.std::unique_ptr.233" = type { %"struct.std::__uniq_ptr_data.234" }
%"struct.std::__uniq_ptr_data.234" = type { %"class.std::__uniq_ptr_impl.235" }
%"class.std::__uniq_ptr_impl.235" = type { %"class.std::tuple.236" }
%"class.std::tuple.236" = type { %"struct.std::_Tuple_impl.237" }
%"struct.std::_Tuple_impl.237" = type { %"struct.std::_Head_base.240" }
%"struct.std::_Head_base.240" = type { ptr }
%"class.std::unique_ptr.241" = type { %"struct.std::__uniq_ptr_data.242" }
%"struct.std::__uniq_ptr_data.242" = type { %"class.std::__uniq_ptr_impl.243" }
%"class.std::__uniq_ptr_impl.243" = type { %"class.std::tuple.244" }
%"class.std::tuple.244" = type { %"struct.std::_Tuple_impl.245" }
%"struct.std::_Tuple_impl.245" = type { %"struct.std::_Head_base.248" }
%"struct.std::_Head_base.248" = type { ptr }
%"class.std::unique_ptr.249" = type { %"struct.std::__uniq_ptr_data.250" }
%"struct.std::__uniq_ptr_data.250" = type { %"class.std::__uniq_ptr_impl.251" }
%"class.std::__uniq_ptr_impl.251" = type { %"class.std::tuple.252" }
%"class.std::tuple.252" = type { %"struct.std::_Tuple_impl.253" }
%"struct.std::_Tuple_impl.253" = type { %"struct.std::_Head_base.256" }
%"struct.std::_Head_base.256" = type { ptr }
%"class.std::unique_ptr.257" = type { %"struct.std::__uniq_ptr_data.258" }
%"struct.std::__uniq_ptr_data.258" = type { %"class.std::__uniq_ptr_impl.259" }
%"class.std::__uniq_ptr_impl.259" = type { %"class.std::tuple.260" }
%"class.std::tuple.260" = type { %"struct.std::_Tuple_impl.261" }
%"struct.std::_Tuple_impl.261" = type { %"struct.std::_Head_base.264" }
%"struct.std::_Head_base.264" = type { ptr }
%"class.std::unique_ptr.265" = type { %"struct.std::__uniq_ptr_data.266" }
%"struct.std::__uniq_ptr_data.266" = type { %"class.std::__uniq_ptr_impl.267" }
%"class.std::__uniq_ptr_impl.267" = type { %"class.std::tuple.268" }
%"class.std::tuple.268" = type { %"struct.std::_Tuple_impl.269" }
%"struct.std::_Tuple_impl.269" = type { %"struct.std::_Head_base.272" }
%"struct.std::_Head_base.272" = type { ptr }
%"class.std::unique_ptr.273" = type { %"struct.std::__uniq_ptr_data.274" }
%"struct.std::__uniq_ptr_data.274" = type { %"class.std::__uniq_ptr_impl.275" }
%"class.std::__uniq_ptr_impl.275" = type { %"class.std::tuple.276" }
%"class.std::tuple.276" = type { %"struct.std::_Tuple_impl.277" }
%"struct.std::_Tuple_impl.277" = type { %"struct.std::_Head_base.280" }
%"struct.std::_Head_base.280" = type { ptr }
%"class.std::unique_ptr.281" = type { %"struct.std::__uniq_ptr_data.282" }
%"struct.std::__uniq_ptr_data.282" = type { %"class.std::__uniq_ptr_impl.283" }
%"class.std::__uniq_ptr_impl.283" = type { %"class.std::tuple.284" }
%"class.std::tuple.284" = type { %"struct.std::_Tuple_impl.285" }
%"struct.std::_Tuple_impl.285" = type { %"struct.std::_Head_base.288" }
%"struct.std::_Head_base.288" = type { ptr }
%"struct.cvc5::internal::options::HolderARITH" = type <{ i64, i8, i8, i8, i8, i8, i8, i8, i8, i32, i8, [3 x i8], i64, i8, i8, i8, i8, i8, i8, i8, i8, i8, i8, i8, i8, i8, [3 x i8], i64, i8, [3 x i8], i32, i8, i8, i8, [5 x i8], i64, i8, i8, i8, [5 x i8], i64, i8, i8, i8, [5 x i8], i64, i8, i8, i8, i8, i8, i8, i8, i8, i32, i8, [3 x i8], i32, i8, [3 x i8], i32, i8, i8, i8, i8, i8, [3 x i8], i32, i8, i8, i8, i8, i8, i8, i8, i8, i8, i8, i8, i8, i8, i8, i8, i8, i64, i8, i8, i8, i8, i8, i8, i8, i8, i8, [3 x i8], i32, i8, i8, i8, i8, i8, [3 x i8], i64, i8, [7 x i8], i64, i8, [7 x i8], i64, i8, [7 x i8], i64, i8, [7 x i8], i64, i8, [7 x i8], i64, i8, [7 x i8], i64, i8, i8, i8, i8, i8, [3 x i8], i64, i8, i8, i8, [5 x i8], i64, i8, i8, i8, [5 x i8], i64, i8, [3 x i8], i32, i8, i8, i8, i8, i8, i8, i8, i8 }>

; Function Attrs: mustprogress uwtable
define linkonce_odr hidden void @_ZN4cvc57context7CDQueueImNS0_14DefaultCleanUpImEESaImEE4pushERKm(ptr noundef nonnull align 8 dereferenceable(96) %0, ptr noundef nonnull align 8 dereferenceable(8) %1) #4 comdat align 2 {
  %3 = alloca ptr, align 8
  %4 = alloca ptr, align 8
  store ptr %0, ptr %3, align 8, !tbaa !105
  store ptr %1, ptr %4, align 8, !tbaa !24
  %5 = load ptr, ptr %3, align 8
  %6 = load ptr, ptr %4, align 8, !tbaa !24
  call void @_ZN4cvc57context6CDListImNS0_14DefaultCleanUpImEESaImEE9push_backERKm(ptr noundef nonnull align 8 dereferenceable(74) %5, ptr noundef nonnull align 8 dereferenceable(8) %6)
  ret void
}

; Function Attrs: mustprogress uwtable
define hidden void @_ZN4cvc58internal6theory5arith6linear9DioSolver22addTrailElementAsLemmaEm(ptr noundef nonnull align 8 dereferenceable(1032) %0, i64 noundef %1) #4 align 2 {
  %3 = alloca ptr, align 8
  %4 = alloca i64, align 8
  store ptr %0, ptr %3, align 8, !tbaa !3
  store i64 %1, ptr %4, align 8, !tbaa !12
  %5 = load ptr, ptr %3, align 8
  %6 = call noundef nonnull align 8 dereferenceable(408) ptr @_ZNK4cvc58internal6EnvObj7optionsEv(ptr noundef nonnull align 8 dereferenceable(16) %5)
  %7 = getelementptr inbounds nuw %"class.cvc5::internal::Options", ptr %6, i32 0, i32 25
  %8 = load ptr, ptr %7, align 8, !tbaa !283
  %9 = getelementptr inbounds nuw %"struct.cvc5::internal::options::HolderARITH", ptr %8, i32 0, i32 22
  %10 = load i8, ptr %9, align 1, !tbaa !467, !range !44, !noundef !45
  %11 = trunc i8 %10 to i1
  br i1 %11, label %12, label %14

12:                                               ; preds = %2
  %13 = getelementptr inbounds nuw %"class.cvc5::internal::theory::arith::linear::DioSolver", ptr %5, i32 0, i32 16
  call void @_ZN4cvc57context7CDQueueImNS0_14DefaultCleanUpImEESaImEE4pushERKm(ptr noundef nonnull align 8 dereferenceable(96) %13, ptr noundef nonnull align 8 dereferenceable(8) %4)
  br label %14

14:                                               ; preds = %12, %2
  ret void
}