; Function Attrs: mustprogress uwtable
define hidden void @_ZN4cvc58internal6theory5arith6linear9DioSolver22addTrailElementAsLemmaEm(ptr noundef nonnull align 8 dereferenceable(1032) %0, i64 noundef %1) local_unnamed_addr #3 align 2 {
  %3 = alloca i64, align 8
  store i64 %1, ptr %3, align 8, !tbaa !122
  %4 = tail call noundef nonnull align 8 dereferenceable(408) ptr @_ZNK4cvc58internal6EnvObj7optionsEv(ptr noundef nonnull align 8 dereferenceable(16) %0)
  %5 = getelementptr inbounds nuw i8, ptr %4, i64 200
  %6 = load ptr, ptr %5, align 8, !tbaa !305
  %7 = getelementptr inbounds nuw i8, ptr %6, i64 41
  %8 = load i8, ptr %7, align 1, !tbaa !489, !range !77, !noundef !78
  %9 = trunc nuw i8 %8 to i1
  br i1 %9, label %10, label %12

10:                                               ; preds = %2
  %11 = getelementptr inbounds nuw i8, ptr %0, i64 888
  call void @_ZN4cvc57context6CDListImNS0_14DefaultCleanUpImEESaImEE9push_backERKm(ptr noundef nonnull align 8 dereferenceable(96) %11, ptr noundef nonnull align 8 dereferenceable(8) %3)
  br label %12

12:                                               ; preds = %10, %2
  ret void
}